; Function Attrs: mustprogress nofree norecurse nosync nounwind willreturn memory(readwrite, inaccessiblemem: none) uwtable
define hidden void @Curl_set_in_callback(ptr noundef readonly %0, i1 noundef zeroext %1) local_unnamed_addr #12 {
  %.not = icmp eq ptr %0, null
  br i1 %.not, label %12, label %3

3:                                                ; preds = %2
  %4 = getelementptr inbounds nuw i8, ptr %0, i64 208
  %5 = load ptr, ptr %4, align 8, !tbaa !92
  %.not4 = icmp eq ptr %5, null
  br i1 %.not4, label %12, label %6

6:                                                ; preds = %3
  %7 = getelementptr inbounds nuw i8, ptr %5, i64 649
  %8 = load i8, ptr %7, align 1
  %9 = select i1 %1, i8 4, i8 0
  %10 = and i8 %8, -5
  %11 = or disjoint i8 %10, %9
  store i8 %11, ptr %7, align 1
  br label %12

12:                                               ; preds = %6, %3, %2
  ret void
}